target datalayout = "e-m:e-p270:32:32-p271:32:32-p272:64:64-i64:64-i128:128-f80:128-n8:16:32:64-S128"
target triple = "x86_64-pc-linux-gnu"

%struct.anon = type { i32, i32 }

; Function Attrs: nounwind uwtable
define internal void @strscan_double(i64 noundef %0, ptr noundef %1, i32 noundef %2, i32 noundef %3) #0 {
  %5 = alloca i64, align 8
  %6 = alloca ptr, align 8
  %7 = alloca i32, align 4
  %8 = alloca i32, align 4
  %9 = alloca double, align 8
  %10 = alloca i32, align 4
  %11 = alloca i64, align 8
  store i64 %0, ptr %5, align 8, !tbaa !22
  store ptr %1, ptr %6, align 8, !tbaa !11
  store i32 %2, ptr %7, align 4, !tbaa !9
  store i32 %3, ptr %8, align 4, !tbaa !9
  call void @llvm.lifetime.start.p0(i64 8, ptr %9) #5
  %12 = load i32, ptr %7, align 4, !tbaa !9
  %13 = icmp sle i32 %12, -1075
  br i1 %13, label %14, label %17

14:                                               ; preds = %4
  %15 = load i64, ptr %5, align 8, !tbaa !22
  %16 = icmp ne i64 %15, 0
  br label %17

17:                                               ; preds = %14, %4
  %18 = phi i1 [ false, %4 ], [ %16, %14 ]
  %19 = xor i1 %18, true
  %20 = xor i1 %19, true
  %21 = zext i1 %20 to i32
  %22 = sext i32 %21 to i64
  %23 = call i64 @llvm.expect.i64(i64 %22, i64 0)
  %24 = icmp ne i64 %23, 0
  br i1 %24, label %25, label %73

25:                                               ; preds = %17
  call void @llvm.lifetime.start.p0(i64 4, ptr %10) #5
  %26 = load i64, ptr %5, align 8, !tbaa !22
  %27 = call i64 @llvm.ctlz.i64(i64 %26, i1 true)
  %28 = trunc i64 %27 to i32
  %29 = xor i32 %28, 63
  store i32 %29, ptr %10, align 4, !tbaa !9
  %30 = load i32, ptr %10, align 4, !tbaa !9
  %31 = load i32, ptr %7, align 4, !tbaa !9
  %32 = add nsw i32 %30, %31
  %33 = icmp sle i32 %32, -1023
  br i1 %33, label %34, label %72

34:                                               ; preds = %25
  %35 = load i32, ptr %10, align 4, !tbaa !9
  %36 = load i32, ptr %7, align 4, !tbaa !9
  %37 = add nsw i32 %35, %36
  %38 = icmp sge i32 %37, -1075
  br i1 %38, label %39, label %72

39:                                               ; preds = %34
  call void @llvm.lifetime.start.p0(i64 8, ptr %11) #5
  %40 = load i32, ptr %7, align 4, !tbaa !9
  %41 = sub nsw i32 -1075, %40
  %42 = zext i32 %41 to i64
  %43 = shl i64 1, %42
  store i64 %43, ptr %11, align 8, !tbaa !22
  %44 = load i64, ptr %5, align 8, !tbaa !22
  %45 = load i64, ptr %11, align 8, !tbaa !22
  %46 = and i64 %44, %45
  %47 = icmp ne i64 %46, 0
  br i1 %47, label %48, label %64

48:                                               ; preds = %39
  %49 = load i64, ptr %5, align 8, !tbaa !22
  %50 = load i64, ptr %11, align 8, !tbaa !22
  %51 = load i64, ptr %11, align 8, !tbaa !22
  %52 = add i64 %50, %51
  %53 = load i64, ptr %11, align 8, !tbaa !22
  %54 = add i64 %52, %53
  %55 = sub i64 %54, 1
  %56 = and i64 %49, %55
  %57 = icmp ne i64 %56, 0
  br i1 %57, label %58, label %64

58:                                               ; preds = %48
  %59 = load i64, ptr %11, align 8, !tbaa !22
  %60 = load i64, ptr %11, align 8, !tbaa !22
  %61 = add i64 %59, %60
  %62 = load i64, ptr %5, align 8, !tbaa !22
  %63 = add i64 %62, %61
  store i64 %63, ptr %5, align 8, !tbaa !22
  br label %64

64:                                               ; preds = %58, %48, %39
  %65 = load i64, ptr %5, align 8, !tbaa !22
  %66 = load i64, ptr %11, align 8, !tbaa !22
  %67 = load i64, ptr %11, align 8, !tbaa !22
  %68 = add i64 %66, %67
  %69 = sub i64 %68, 1
  %70 = xor i64 %69, -1
  %71 = and i64 %65, %70
  store i64 %71, ptr %5, align 8, !tbaa !22
  call void @llvm.lifetime.end.p0(i64 8, ptr %11) #5
  br label %72

72:                                               ; preds = %64, %34, %25
  call void @llvm.lifetime.end.p0(i64 4, ptr %10) #5
  br label %73

73:                                               ; preds = %72, %17
  %74 = load i64, ptr %5, align 8, !tbaa !22
  %75 = sitofp i64 %74 to double
  store double %75, ptr %9, align 8, !tbaa !20
  %76 = load i32, ptr %8, align 4, !tbaa !9
  %77 = icmp ne i32 %76, 0
  br i1 %77, label %78, label %81

78:                                               ; preds = %73
  %79 = load double, ptr %9, align 8, !tbaa !20
  %80 = fneg double %79
  store double %80, ptr %9, align 8, !tbaa !20
  br label %81

81:                                               ; preds = %78, %73
  %82 = load i32, ptr %7, align 4, !tbaa !9
  %83 = icmp ne i32 %82, 0
  br i1 %83, label %84, label %88

84:                                               ; preds = %81
  %85 = load double, ptr %9, align 8, !tbaa !20
  %86 = load i32, ptr %7, align 4, !tbaa !9
  %87 = call double @ldexp(double noundef %85, i32 noundef %86) #5, !tbaa !9
  store double %87, ptr %9, align 8, !tbaa !20
  br label %88

88:                                               ; preds = %84, %81
  %89 = load double, ptr %9, align 8, !tbaa !20
  %90 = load ptr, ptr %6, align 8, !tbaa !11
  store double %89, ptr %90, align 8, !tbaa !13
  call void @llvm.lifetime.end.p0(i64 8, ptr %9) #5
  ret void
}

; Function Attrs: nounwind uwtable
define internal i32 @strscan_bin(ptr noundef %0, ptr noundef %1, i32 noundef %2, i32 noundef %3, i32 noundef %4, i32 noundef %5, i32 noundef %6) #0 {
  %8 = alloca i32, align 4
  %9 = alloca ptr, align 8
  %10 = alloca ptr, align 8
  %11 = alloca i32, align 4
  %12 = alloca i32, align 4
  %13 = alloca i32, align 4
  %14 = alloca i32, align 4
  %15 = alloca i32, align 4
  %16 = alloca i64, align 8
  %17 = alloca i32, align 4
  %18 = alloca i32, align 4
  store ptr %0, ptr %9, align 8, !tbaa !4
  store ptr %1, ptr %10, align 8, !tbaa !11
  store i32 %2, ptr %11, align 4, !tbaa !9
  store i32 %3, ptr %12, align 4, !tbaa !9
  store i32 %4, ptr %13, align 4, !tbaa !9
  store i32 %5, ptr %14, align 4, !tbaa !9
  store i32 %6, ptr %15, align 4, !tbaa !9
  call void @llvm.lifetime.start.p0(i64 8, ptr %16) #5
  store i64 0, ptr %16, align 8, !tbaa !22
  call void @llvm.lifetime.start.p0(i64 4, ptr %17) #5
  %19 = load i32, ptr %13, align 4, !tbaa !9
  %20 = icmp ne i32 %19, 0
  br i1 %20, label %24, label %21

21:                                               ; preds = %7
  %22 = load i32, ptr %15, align 4, !tbaa !9
  %23 = icmp ugt i32 %22, 64
  br i1 %23, label %24, label %25

24:                                               ; preds = %21, %7
  store i32 0, ptr %8, align 4
  store i32 1, ptr %18, align 4
  br label %135

25:                                               ; preds = %21
  %26 = load i32, ptr %15, align 4, !tbaa !9
  store i32 %26, ptr %17, align 4, !tbaa !9
  br label %27

27:                                               ; preds = %46, %25
  %28 = load i32, ptr %17, align 4, !tbaa !9
  %29 = icmp ne i32 %28, 0
  br i1 %29, label %30, label %51

30:                                               ; preds = %27
  %31 = load ptr, ptr %9, align 8, !tbaa !4
  %32 = load i8, ptr %31, align 1, !tbaa !13
  %33 = zext i8 %32 to i32
  %34 = and i32 %33, -2
  %35 = icmp ne i32 %34, 48
  br i1 %35, label %36, label %37

36:                                               ; preds = %30
  store i32 0, ptr %8, align 4
  store i32 1, ptr %18, align 4
  br label %135

37:                                               ; preds = %30
  %38 = load i64, ptr %16, align 8, !tbaa !22
  %39 = shl i64 %38, 1
  %40 = load ptr, ptr %9, align 8, !tbaa !4
  %41 = load i8, ptr %40, align 1, !tbaa !13
  %42 = zext i8 %41 to i32
  %43 = and i32 %42, 1
  %44 = sext i32 %43 to i64
  %45 = or i64 %39, %44
  store i64 %45, ptr %16, align 8, !tbaa !22
  br label %46

46:                                               ; preds = %37
  %47 = load i32, ptr %17, align 4, !tbaa !9
  %48 = add i32 %47, -1
  store i32 %48, ptr %17, align 4, !tbaa !9
  %49 = load ptr, ptr %9, align 8, !tbaa !4
  %50 = getelementptr inbounds nuw i8, ptr %49, i32 1
  store ptr %50, ptr %9, align 8, !tbaa !4
  br label %27, !llvm.loop !27

51:                                               ; preds = %27
  %52 = load i32, ptr %11, align 4, !tbaa !9
  switch i32 %52, label %116 [
    i32 3, label %53
    i32 4, label %84
    i32 5, label %103
    i32 6, label %103
  ]

53:                                               ; preds = %51
  %54 = load i32, ptr %12, align 4, !tbaa !9
  %55 = and i32 %54, 2
  %56 = icmp ne i32 %55, 0
  br i1 %56, label %78, label %57

57:                                               ; preds = %53
  %58 = load i64, ptr %16, align 8, !tbaa !22
  %59 = load i32, ptr %14, align 4, !tbaa !9
  %60 = add i32 -2147483648, %59
  %61 = zext i32 %60 to i64
  %62 = icmp ult i64 %58, %61
  br i1 %62, label %63, label %78

63:                                               ; preds = %57
  %64 = load i32, ptr %14, align 4, !tbaa !9
  %65 = icmp ne i32 %64, 0
  br i1 %65, label %66, label %71

66:                                               ; preds = %63
  %67 = load i64, ptr %16, align 8, !tbaa !22
  %68 = xor i64 %67, -1
  %69 = add i64 %68, 1
  %70 = trunc i64 %69 to i32
  br label %74

71:                                               ; preds = %63
  %72 = load i64, ptr %16, align 8, !tbaa !22
  %73 = trunc i64 %72 to i32
  br label %74

74:                                               ; preds = %71, %66
  %75 = phi i32 [ %70, %66 ], [ %73, %71 ]
  %76 = load ptr, ptr %10, align 8, !tbaa !11
  %77 = getelementptr inbounds nuw %struct.anon, ptr %76, i32 0, i32 0
  store i32 %75, ptr %77, align 8, !tbaa !13
  store i32 3, ptr %8, align 4
  store i32 1, ptr %18, align 4
  br label %135

78:                                               ; preds = %57, %53
  %79 = load i32, ptr %12, align 4, !tbaa !9
  %80 = and i32 %79, 16
  %81 = icmp ne i32 %80, 0
  br i1 %81, label %83, label %82

82:                                               ; preds = %78
  store i32 1, ptr %11, align 4, !tbaa !9
  br label %117

83:                                               ; preds = %78
  br label %84

84:                                               ; preds = %51, %83
  %85 = load i32, ptr %15, align 4, !tbaa !9
  %86 = icmp ugt i32 %85, 32
  br i1 %86, label %87, label %88

87:                                               ; preds = %84
  store i32 0, ptr %8, align 4
  store i32 1, ptr %18, align 4
  br label %135

88:                                               ; preds = %84
  %89 = load i32, ptr %14, align 4, !tbaa !9
  %90 = icmp ne i32 %89, 0
  br i1 %90, label %91, label %96

91:                                               ; preds = %88
  %92 = load i64, ptr %16, align 8, !tbaa !22
  %93 = xor i64 %92, -1
  %94 = add i64 %93, 1
  %95 = trunc i64 %94 to i32
  br label %99

96:                                               ; preds = %88
  %97 = load i64, ptr %16, align 8, !tbaa !22
  %98 = trunc i64 %97 to i32
  br label %99

99:                                               ; preds = %96, %91
  %100 = phi i32 [ %95, %91 ], [ %98, %96 ]
  %101 = load ptr, ptr %10, align 8, !tbaa !11
  %102 = getelementptr inbounds nuw %struct.anon, ptr %101, i32 0, i32 0
  store i32 %100, ptr %102, align 8, !tbaa !13
  store i32 4, ptr %8, align 4
  store i32 1, ptr %18, align 4
  br label %135

103:                                              ; preds = %51, %51
  %104 = load i32, ptr %14, align 4, !tbaa !9
  %105 = icmp ne i32 %104, 0
  br i1 %105, label %106, label %110

106:                                              ; preds = %103
  %107 = load i64, ptr %16, align 8, !tbaa !22
  %108 = xor i64 %107, -1
  %109 = add i64 %108, 1
  br label %112

110:                                              ; preds = %103
  %111 = load i64, ptr %16, align 8, !tbaa !22
  br label %112

112:                                              ; preds = %110, %106
  %113 = phi i64 [ %109, %106 ], [ %111, %110 ]
  %114 = load ptr, ptr %10, align 8, !tbaa !11
  store i64 %113, ptr %114, align 8, !tbaa !13
  %115 = load i32, ptr %11, align 4, !tbaa !9
  store i32 %115, ptr %8, align 4
  store i32 1, ptr %18, align 4
  br label %135

116:                                              ; preds = %51
  br label %117

117:                                              ; preds = %116, %82
  %118 = load i64, ptr %16, align 8, !tbaa !22
  %119 = and i64 %118, -4611686018427387904
  %120 = icmp ne i64 %119, 0
  br i1 %120, label %121, label %129

121:                                              ; preds = %117
  %122 = load i64, ptr %16, align 8, !tbaa !22
  %123 = lshr i64 %122, 2
  %124 = load i64, ptr %16, align 8, !tbaa !22
  %125 = and i64 %124, 3
  %126 = or i64 %123, %125
  store i64 %126, ptr %16, align 8, !tbaa !22
  %127 = load i32, ptr %13, align 4, !tbaa !9
  %128 = add nsw i32 %127, 2
  store i32 %128, ptr %13, align 4, !tbaa !9
  br label %129

129:                                              ; preds = %121, %117
  %130 = load i64, ptr %16, align 8, !tbaa !22
  %131 = load ptr, ptr %10, align 8, !tbaa !11
  %132 = load i32, ptr %13, align 4, !tbaa !9
  %133 = load i32, ptr %14, align 4, !tbaa !9
  call void @strscan_double(i64 noundef %130, ptr noundef %131, i32 noundef %132, i32 noundef %133)
  %134 = load i32, ptr %11, align 4, !tbaa !9
  store i32 %134, ptr %8, align 4
  store i32 1, ptr %18, align 4
  br label %135

135:                                              ; preds = %129, %112, %99, %87, %74, %36, %24
  call void @llvm.lifetime.end.p0(i64 4, ptr %17) #5
  call void @llvm.lifetime.end.p0(i64 8, ptr %16) #5
  %136 = load i32, ptr %8, align 4
  ret i32 %136
}