; Function Attrs: nofree nounwind uwtable
define internal fastcc noundef i32 @strscan_bin(ptr noundef readonly captures(none) %0, ptr noundef writeonly captures(none) %1, i32 noundef %2, i32 noundef %3, i32 noundef %4, i32 noundef range(i32 0, 2) %5, i32 noundef %6) unnamed_addr #0 {
  %8 = icmp ne i32 %4, 0
  %9 = icmp ugt i32 %6, 64
  %or.cond = or i1 %8, %9
  br i1 %or.cond, label %.loopexit, label %.preheader

.preheader:                                       ; preds = %7
  %.not56 = icmp eq i32 %6, 0
  br i1 %.not56, label %._crit_edge, label %.lr.ph

.lr.ph:                                           ; preds = %.preheader, %13
  %.059 = phi i32 [ %18, %13 ], [ %6, %.preheader ]
  %.03858 = phi i64 [ %17, %13 ], [ 0, %.preheader ]
  %.04057 = phi ptr [ %19, %13 ], [ %0, %.preheader ]
  %10 = load i8, ptr %.04057, align 1, !tbaa !4
  %11 = zext i8 %10 to i32
  %12 = and i32 %11, 254
  %.not51 = icmp eq i32 %12, 48
  br i1 %.not51, label %13, label %.loopexit

13:                                               ; preds = %.lr.ph
  %14 = shl i64 %.03858, 1
  %15 = and i32 %11, 1
  %16 = zext nneg i32 %15 to i64
  %17 = or disjoint i64 %14, %16
  %18 = add nsw i32 %.059, -1
  %19 = getelementptr inbounds nuw i8, ptr %.04057, i64 1
  %.not = icmp eq i32 %18, 0
  br i1 %.not, label %._crit_edge, label %.lr.ph, !llvm.loop !19

._crit_edge:                                      ; preds = %13, %.preheader
  %.038.lcssa = phi i64 [ 0, %.preheader ], [ %17, %13 ]
  switch i32 %2, label %40 [
    i32 3, label %20
    i32 4, label %31
    i32 5, label %37
    i32 6, label %37
  ]

20:                                               ; preds = %._crit_edge
  %21 = and i32 %3, 2
  %.not46 = icmp eq i32 %21, 0
  %22 = or disjoint i32 %5, -2147483648
  %23 = zext i32 %22 to i64
  %24 = icmp ult i64 %.038.lcssa, %23
  %or.cond54 = select i1 %.not46, i1 %24, i1 false
  br i1 %or.cond54, label %25, label %29

25:                                               ; preds = %20
  %.not47 = icmp eq i32 %5, 0
  %26 = trunc i64 %.038.lcssa to i32
  %27 = sub i32 0, %26
  %28 = select i1 %.not47, i32 %26, i32 %27
  store i32 %28, ptr %1, align 8, !tbaa !4
  br label %.loopexit

29:                                               ; preds = %20
  %30 = and i32 %3, 16
  %.not48 = icmp eq i32 %30, 0
  br i1 %.not48, label %40, label %31

31:                                               ; preds = %29, %._crit_edge
  %32 = icmp ugt i32 %6, 32
  br i1 %32, label %.loopexit, label %33

33:                                               ; preds = %31
  %.not49 = icmp eq i32 %5, 0
  %34 = trunc i64 %.038.lcssa to i32
  %35 = sub i32 0, %34
  %36 = select i1 %.not49, i32 %34, i32 %35
  store i32 %36, ptr %1, align 8, !tbaa !4
  br label %.loopexit

37:                                               ; preds = %._crit_edge, %._crit_edge
  %.not45 = icmp eq i32 %5, 0
  %38 = sub i64 0, %.038.lcssa
  %39 = select i1 %.not45, i64 %.038.lcssa, i64 %38
  store i64 %39, ptr %1, align 8, !tbaa !4
  br label %.loopexit

40:                                               ; preds = %29, %._crit_edge
  %.042 = phi i32 [ %2, %._crit_edge ], [ 1, %29 ]
  %.not50 = icmp ult i64 %.038.lcssa, 4611686018427387904
  %41 = lshr i64 %.038.lcssa, 2
  %42 = and i64 %.038.lcssa, 3
  %43 = or i64 %41, %42
  %.1 = select i1 %.not50, i64 %.038.lcssa, i64 %43
  %44 = uitofp nneg i64 %.1 to double
  %.not34.i = icmp eq i32 %5, 0
  %45 = fneg double %44
  %.027.i = select i1 %.not34.i, double %44, double %45
  br i1 %.not50, label %strscan_double.exit, label %46

46:                                               ; preds = %40
  %47 = tail call double @ldexp(double noundef %.027.i, i32 noundef 2) #7, !tbaa !17
  br label %strscan_double.exit

strscan_double.exit:                              ; preds = %40, %46
  %.128.i = phi double [ %47, %46 ], [ %.027.i, %40 ]
  store double %.128.i, ptr %1, align 8, !tbaa !4
  br label %.loopexit

.loopexit:                                        ; preds = %.lr.ph, %31, %7, %strscan_double.exit, %37, %33, %25
  %.039 = phi i32 [ %.042, %strscan_double.exit ], [ %2, %37 ], [ 4, %33 ], [ 3, %25 ], [ 0, %7 ], [ 0, %31 ], [ 0, %.lr.ph ]
  ret i32 %.039
}